target datalayout = "e-m:e-p270:32:32-p271:32:32-p272:64:64-i64:64-i128:128-f80:128-n8:16:32:64-S128"
target triple = "x86_64-pc-linux-gnu"

%"class.cvc5::internal::RealAlgebraicNumber" = type { %"class.cvc5::internal::Rational" }
%"class.cvc5::internal::Rational" = type { %class.__gmp_expr }
%class.__gmp_expr = type { [1 x %struct.__mpq_struct] }
%struct.__mpq_struct = type { %struct.__mpz_struct, %struct.__mpz_struct }
%struct.__mpz_struct = type { i32, i32, ptr }
%class.__gmp_expr.0 = type { [1 x %struct.__mpz_struct] }

; Function Attrs: inlinehint mustprogress uwtable
define available_externally void @__gmpz_neg(ptr noundef %0, ptr noundef %1) #1 {
  %3 = alloca ptr, align 8
  %4 = alloca ptr, align 8
  store ptr %0, ptr %3, align 8, !tbaa !43
  store ptr %1, ptr %4, align 8, !tbaa !43
  %5 = load ptr, ptr %3, align 8, !tbaa !43
  %6 = load ptr, ptr %4, align 8, !tbaa !43
  %7 = icmp ne ptr %5, %6
  br i1 %7, label %8, label %11

8:                                                ; preds = %2
  %9 = load ptr, ptr %3, align 8, !tbaa !43
  %10 = load ptr, ptr %4, align 8, !tbaa !43
  call void @__gmpz_set(ptr noundef %9, ptr noundef %10)
  br label %11

11:                                               ; preds = %8, %2
  %12 = load ptr, ptr %3, align 8, !tbaa !43
  %13 = getelementptr inbounds nuw %struct.__mpz_struct, ptr %12, i32 0, i32 1
  %14 = load i32, ptr %13, align 4, !tbaa !42
  %15 = sub nsw i32 0, %14
  %16 = load ptr, ptr %3, align 8, !tbaa !43
  %17 = getelementptr inbounds nuw %struct.__mpz_struct, ptr %16, i32 0, i32 1
  store i32 %15, ptr %17, align 4, !tbaa !42
  ret void
}

; Function Attrs: mustprogress uwtable
define linkonce_odr hidden void @_ZN10__gmp_exprIA1_12__mpz_structS1_E9assign_uiEm(ptr noundef nonnull align 8 dereferenceable(16) %0, i64 noundef %1) #0 comdat align 2 {
  %3 = alloca ptr, align 8
  %4 = alloca i64, align 8
  store ptr %0, ptr %3, align 8, !tbaa !40
  store i64 %1, ptr %4, align 8, !tbaa !14
  %5 = load ptr, ptr %3, align 8
  %6 = load i64, ptr %4, align 8, !tbaa !14
  %7 = icmp eq i64 %6, 0
  %8 = call i1 @llvm.is.constant.i1(i1 %7)
  br i1 %8, label %9, label %16

9:                                                ; preds = %2
  %10 = load i64, ptr %4, align 8, !tbaa !14
  %11 = icmp eq i64 %10, 0
  br i1 %11, label %12, label %16

12:                                               ; preds = %9
  %13 = getelementptr inbounds nuw %class.__gmp_expr.0, ptr %5, i32 0, i32 0
  %14 = getelementptr inbounds [1 x %struct.__mpz_struct], ptr %13, i64 0, i64 0
  %15 = getelementptr inbounds nuw %struct.__mpz_struct, ptr %14, i32 0, i32 1
  store i32 0, ptr %15, align 4, !tbaa !42
  br label %20

16:                                               ; preds = %9, %2
  %17 = getelementptr inbounds nuw %class.__gmp_expr.0, ptr %5, i32 0, i32 0
  %18 = getelementptr inbounds [1 x %struct.__mpz_struct], ptr %17, i64 0, i64 0
  %19 = load i64, ptr %4, align 8, !tbaa !14
  call void @__gmpz_set_ui(ptr noundef %18, i64 noundef %19)
  br label %20

20:                                               ; preds = %16, %12
  ret void
}

; Function Attrs: mustprogress uwtable
define linkonce_odr hidden void @_ZN10__gmp_exprIA1_12__mpz_structS1_E9assign_siEl(ptr noundef nonnull align 8 dereferenceable(16) %0, i64 noundef %1) #0 comdat align 2 {
  %3 = alloca ptr, align 8
  %4 = alloca i64, align 8
  store ptr %0, ptr %3, align 8, !tbaa !40
  store i64 %1, ptr %4, align 8, !tbaa !14
  %5 = load ptr, ptr %3, align 8
  %6 = load i64, ptr %4, align 8, !tbaa !14
  %7 = icmp sge i64 %6, 0
  %8 = call i1 @llvm.is.constant.i1(i1 %7)
  br i1 %8, label %9, label %14

9:                                                ; preds = %2
  %10 = load i64, ptr %4, align 8, !tbaa !14
  %11 = icmp sge i64 %10, 0
  br i1 %11, label %12, label %14

12:                                               ; preds = %9
  %13 = load i64, ptr %4, align 8, !tbaa !14
  call void @_ZN10__gmp_exprIA1_12__mpz_structS1_E9assign_uiEm(ptr noundef nonnull align 8 dereferenceable(16) %5, i64 noundef %13)
  br label %33

14:                                               ; preds = %9, %2
  %15 = load i64, ptr %4, align 8, !tbaa !14
  %16 = icmp sle i64 %15, 0
  %17 = call i1 @llvm.is.constant.i1(i1 %16)
  br i1 %17, label %18, label %28

18:                                               ; preds = %14
  %19 = load i64, ptr %4, align 8, !tbaa !14
  %20 = icmp sle i64 %19, 0
  br i1 %20, label %21, label %28

21:                                               ; preds = %18
  %22 = load i64, ptr %4, align 8, !tbaa !14
  %23 = sub i64 0, %22
  call void @_ZN10__gmp_exprIA1_12__mpz_structS1_E9assign_uiEm(ptr noundef nonnull align 8 dereferenceable(16) %5, i64 noundef %23)
  %24 = getelementptr inbounds nuw %class.__gmp_expr.0, ptr %5, i32 0, i32 0
  %25 = getelementptr inbounds [1 x %struct.__mpz_struct], ptr %24, i64 0, i64 0
  %26 = getelementptr inbounds nuw %class.__gmp_expr.0, ptr %5, i32 0, i32 0
  %27 = getelementptr inbounds [1 x %struct.__mpz_struct], ptr %26, i64 0, i64 0
  call void @__gmpz_neg(ptr noundef %25, ptr noundef %27)
  br label %32

28:                                               ; preds = %18, %14
  %29 = getelementptr inbounds nuw %class.__gmp_expr.0, ptr %5, i32 0, i32 0
  %30 = getelementptr inbounds [1 x %struct.__mpz_struct], ptr %29, i64 0, i64 0
  %31 = load i64, ptr %4, align 8, !tbaa !14
  call void @__gmpz_set_si(ptr noundef %30, i64 noundef %31)
  br label %32

32:                                               ; preds = %28, %21
  br label %33

33:                                               ; preds = %32, %12
  ret void
}

; Function Attrs: mustprogress uwtable
define linkonce_odr hidden noundef nonnull align 8 dereferenceable(16) ptr @_ZN10__gmp_exprIA1_12__mpz_structS1_EaSEl(ptr noundef nonnull align 8 dereferenceable(16) %0, i64 noundef %1) #0 comdat align 2 {
  %3 = alloca ptr, align 8
  %4 = alloca i64, align 8
  store ptr %0, ptr %3, align 8, !tbaa !40
  store i64 %1, ptr %4, align 8, !tbaa !14
  %5 = load ptr, ptr %3, align 8
  %6 = load i64, ptr %4, align 8, !tbaa !14
  call void @_ZN10__gmp_exprIA1_12__mpz_structS1_E9assign_siEl(ptr noundef nonnull align 8 dereferenceable(16) %5, i64 noundef %6)
  ret ptr %5
}

; Function Attrs: mustprogress nounwind uwtable
define linkonce_odr hidden noundef nonnull align 8 dereferenceable(16) ptr @_ZN10__gmp_exprIA1_12__mpq_structS1_E7get_numEv(ptr noundef nonnull align 8 dereferenceable(32) %0) #5 comdat align 2 {
  %2 = alloca ptr, align 8
  store ptr %0, ptr %2, align 8, !tbaa !37
  %3 = load ptr, ptr %2, align 8
  %4 = getelementptr inbounds nuw %class.__gmp_expr, ptr %3, i32 0, i32 0
  %5 = getelementptr inbounds [1 x %struct.__mpq_struct], ptr %4, i64 0, i64 0
  %6 = getelementptr inbounds nuw %struct.__mpq_struct, ptr %5, i32 0, i32 0
  ret ptr %6
}

; Function Attrs: mustprogress uwtable
define linkonce_odr hidden void @_ZN10__gmp_exprIA1_12__mpq_structS1_E7init_siEl(ptr noundef nonnull align 8 dereferenceable(32) %0, i64 noundef %1) #0 comdat align 2 {
  %3 = alloca ptr, align 8
  %4 = alloca i64, align 8
  store ptr %0, ptr %3, align 8, !tbaa !37
  store i64 %1, ptr %4, align 8, !tbaa !14
  %5 = load ptr, ptr %3, align 8
  %6 = getelementptr inbounds nuw %class.__gmp_expr, ptr %5, i32 0, i32 0
  %7 = getelementptr inbounds [1 x %struct.__mpq_struct], ptr %6, i64 0, i64 0
  call void @__gmpq_init(ptr noundef %7)
  %8 = load i64, ptr %4, align 8, !tbaa !14
  %9 = call noundef nonnull align 8 dereferenceable(16) ptr @_ZN10__gmp_exprIA1_12__mpq_structS1_E7get_numEv(ptr noundef nonnull align 8 dereferenceable(32) %5)
  %10 = call noundef nonnull align 8 dereferenceable(16) ptr @_ZN10__gmp_exprIA1_12__mpz_structS1_EaSEl(ptr noundef nonnull align 8 dereferenceable(16) %9, i64 noundef %8)
  ret void
}

; Function Attrs: mustprogress nounwind uwtable
define linkonce_odr hidden void @_ZN10__gmp_exprIA1_12__mpq_structS1_ED2Ev(ptr noundef nonnull align 8 dereferenceable(32) %0) unnamed_addr #5 comdat align 2 personality ptr @__gxx_personality_v0 {
  %2 = alloca ptr, align 8
  store ptr %0, ptr %2, align 8, !tbaa !37
  %3 = load ptr, ptr %2, align 8
  %4 = getelementptr inbounds nuw %class.__gmp_expr, ptr %3, i32 0, i32 0
  %5 = getelementptr inbounds [1 x %struct.__mpq_struct], ptr %4, i64 0, i64 0
  invoke void @__gmpq_clear(ptr noundef %5)
          to label %6 unwind label %7

6:                                                ; preds = %1
  ret void

7:                                                ; preds = %1
  %8 = landingpad { ptr, i32 }
          catch ptr null
  %9 = extractvalue { ptr, i32 } %8, 0
  call void @__clang_call_terminate(ptr %9) #17
  unreachable
}

; Function Attrs: mustprogress uwtable
define linkonce_odr hidden void @_ZN10__gmp_exprIA1_12__mpq_structS1_E12canonicalizeEv(ptr noundef nonnull align 8 dereferenceable(32) %0) #0 comdat align 2 {
  %2 = alloca ptr, align 8
  store ptr %0, ptr %2, align 8, !tbaa !37
  %3 = load ptr, ptr %2, align 8
  %4 = getelementptr inbounds nuw %class.__gmp_expr, ptr %3, i32 0, i32 0
  %5 = getelementptr inbounds [1 x %struct.__mpq_struct], ptr %4, i64 0, i64 0
  call void @__gmpq_canonicalize(ptr noundef %5)
  ret void
}

; Function Attrs: mustprogress uwtable
define linkonce_odr hidden void @_ZN10__gmp_exprIA1_12__mpq_structS1_EC2Ei(ptr noundef nonnull align 8 dereferenceable(32) %0, i32 noundef %1) unnamed_addr #0 comdat align 2 {
  %3 = alloca ptr, align 8
  %4 = alloca i32, align 4
  store ptr %0, ptr %3, align 8, !tbaa !37
  store i32 %1, ptr %4, align 4, !tbaa !39
  %5 = load ptr, ptr %3, align 8
  %6 = load i32, ptr %4, align 4, !tbaa !39
  %7 = sext i32 %6 to i64
  call void @_ZN10__gmp_exprIA1_12__mpq_structS1_E7init_siEl(ptr noundef nonnull align 8 dereferenceable(32) %5, i64 noundef %7)
  ret void
}

; Function Attrs: mustprogress uwtable
define linkonce_odr hidden void @_ZN4cvc58internal8RationalC2Ev(ptr noundef nonnull align 8 dereferenceable(32) %0) unnamed_addr #0 comdat align 2 personality ptr @__gxx_personality_v0 {
  %2 = alloca ptr, align 8
  %3 = alloca ptr, align 8
  %4 = alloca i32, align 4
  store ptr %0, ptr %2, align 8, !tbaa !8
  %5 = load ptr, ptr %2, align 8
  %6 = getelementptr inbounds nuw %"class.cvc5::internal::Rational", ptr %5, i32 0, i32 0
  call void @_ZN10__gmp_exprIA1_12__mpq_structS1_EC2Ei(ptr noundef nonnull align 8 dereferenceable(32) %6, i32 noundef 0)
  %7 = getelementptr inbounds nuw %"class.cvc5::internal::Rational", ptr %5, i32 0, i32 0
  invoke void @_ZN10__gmp_exprIA1_12__mpq_structS1_E12canonicalizeEv(ptr noundef nonnull align 8 dereferenceable(32) %7)
          to label %8 unwind label %9

8:                                                ; preds = %1
  ret void

9:                                                ; preds = %1
  %10 = landingpad { ptr, i32 }
          cleanup
  %11 = extractvalue { ptr, i32 } %10, 0
  store ptr %11, ptr %3, align 8
  %12 = extractvalue { ptr, i32 } %10, 1
  store i32 %12, ptr %4, align 4
  call void @_ZN10__gmp_exprIA1_12__mpq_structS1_ED2Ev(ptr noundef nonnull align 8 dereferenceable(32) %6) #16
  br label %13

13:                                               ; preds = %9
  %14 = load ptr, ptr %3, align 8
  %15 = load i32, ptr %4, align 4
  %16 = insertvalue { ptr, i32 } poison, ptr %14, 0
  %17 = insertvalue { ptr, i32 } %16, i32 %15, 1
  resume { ptr, i32 } %17
}

; Function Attrs: mustprogress uwtable
define hidden void @_ZN4cvc58internal19RealAlgebraicNumberC2Ev(ptr noundef nonnull align 8 dereferenceable(32) %0) unnamed_addr #0 align 2 {
  %2 = alloca ptr, align 8
  store ptr %0, ptr %2, align 8, !tbaa !3
  %3 = load ptr, ptr %2, align 8
  %4 = getelementptr inbounds nuw %"class.cvc5::internal::RealAlgebraicNumber", ptr %3, i32 0, i32 0
  call void @_ZN4cvc58internal8RationalC2Ev(ptr noundef nonnull align 8 dereferenceable(32) %4)
  ret void
}